target datalayout = "e-m:e-p270:32:32-p271:32:32-p272:64:64-i64:64-i128:128-f80:128-n8:16:32:64-S128"
target triple = "x86_64-pc-linux-gnu"

%"class.OpenSubdiv::v3_6_0::Vtr::internal::SparseSelector" = type <{ ptr, i8, [7 x i8] }>
%"class.OpenSubdiv::v3_6_0::Vtr::internal::Refinement" = type { ptr, ptr, ptr, %"class.OpenSubdiv::v3_6_0::Sdc::Options", i32, i32, i8, i8, i32, i32, i32, i32, i32, i32, i32, i32, i32, i32, i32, i32, %"class.OpenSubdiv::v3_6_0::Vtr::Array", %"class.OpenSubdiv::v3_6_0::Vtr::Array", %"class.std::vector", %"class.std::vector", %"class.std::vector", %"class.std::vector", %"class.std::vector", %"class.std::vector", %"class.std::vector", %"class.std::vector", %"class.std::vector", %"class.std::vector.0", %"class.std::vector.0", %"class.std::vector.0", %"class.std::vector.5", %"class.std::vector.5", %"class.std::vector.5", %"class.std::vector.10" }
%"class.OpenSubdiv::v3_6_0::Sdc::Options" = type { i8, i8, i8, i8 }
%"class.OpenSubdiv::v3_6_0::Vtr::Array" = type { %"class.OpenSubdiv::v3_6_0::Vtr::ConstArray.base", [4 x i8] }
%"class.OpenSubdiv::v3_6_0::Vtr::ConstArray.base" = type <{ ptr, i32 }>
%"class.std::vector" = type { %"struct.std::_Vector_base" }
%"struct.std::_Vector_base" = type { %"struct.std::_Vector_base<int, std::allocator<int>>::_Vector_impl" }
%"struct.std::_Vector_base<int, std::allocator<int>>::_Vector_impl" = type { %"struct.std::_Vector_base<int, std::allocator<int>>::_Vector_impl_data" }
%"struct.std::_Vector_base<int, std::allocator<int>>::_Vector_impl_data" = type { ptr, ptr, ptr }
%"class.std::vector.0" = type { %"struct.std::_Vector_base.1" }
%"struct.std::_Vector_base.1" = type { %"struct.std::_Vector_base<OpenSubdiv::v3_6_0::Vtr::internal::Refinement::ChildTag, std::allocator<OpenSubdiv::v3_6_0::Vtr::internal::Refinement::ChildTag>>::_Vector_impl" }
%"struct.std::_Vector_base<OpenSubdiv::v3_6_0::Vtr::internal::Refinement::ChildTag, std::allocator<OpenSubdiv::v3_6_0::Vtr::internal::Refinement::ChildTag>>::_Vector_impl" = type { %"struct.std::_Vector_base<OpenSubdiv::v3_6_0::Vtr::internal::Refinement::ChildTag, std::allocator<OpenSubdiv::v3_6_0::Vtr::internal::Refinement::ChildTag>>::_Vector_impl_data" }
%"struct.std::_Vector_base<OpenSubdiv::v3_6_0::Vtr::internal::Refinement::ChildTag, std::allocator<OpenSubdiv::v3_6_0::Vtr::internal::Refinement::ChildTag>>::_Vector_impl_data" = type { ptr, ptr, ptr }
%"class.std::vector.5" = type { %"struct.std::_Vector_base.6" }
%"struct.std::_Vector_base.6" = type { %"struct.std::_Vector_base<OpenSubdiv::v3_6_0::Vtr::internal::Refinement::SparseTag, std::allocator<OpenSubdiv::v3_6_0::Vtr::internal::Refinement::SparseTag>>::_Vector_impl" }
%"struct.std::_Vector_base<OpenSubdiv::v3_6_0::Vtr::internal::Refinement::SparseTag, std::allocator<OpenSubdiv::v3_6_0::Vtr::internal::Refinement::SparseTag>>::_Vector_impl" = type { %"struct.std::_Vector_base<OpenSubdiv::v3_6_0::Vtr::internal::Refinement::SparseTag, std::allocator<OpenSubdiv::v3_6_0::Vtr::internal::Refinement::SparseTag>>::_Vector_impl_data" }
%"struct.std::_Vector_base<OpenSubdiv::v3_6_0::Vtr::internal::Refinement::SparseTag, std::allocator<OpenSubdiv::v3_6_0::Vtr::internal::Refinement::SparseTag>>::_Vector_impl_data" = type { ptr, ptr, ptr }
%"class.std::vector.10" = type { %"struct.std::_Vector_base.11" }
%"struct.std::_Vector_base.11" = type { %"struct.std::_Vector_base<OpenSubdiv::v3_6_0::Vtr::internal::FVarRefinement *, std::allocator<OpenSubdiv::v3_6_0::Vtr::internal::FVarRefinement *>>::_Vector_impl" }
%"struct.std::_Vector_base<OpenSubdiv::v3_6_0::Vtr::internal::FVarRefinement *, std::allocator<OpenSubdiv::v3_6_0::Vtr::internal::FVarRefinement *>>::_Vector_impl" = type { %"struct.std::_Vector_base<OpenSubdiv::v3_6_0::Vtr::internal::FVarRefinement *, std::allocator<OpenSubdiv::v3_6_0::Vtr::internal::FVarRefinement *>>::_Vector_impl_data" }
%"struct.std::_Vector_base<OpenSubdiv::v3_6_0::Vtr::internal::FVarRefinement *, std::allocator<OpenSubdiv::v3_6_0::Vtr::internal::FVarRefinement *>>::_Vector_impl_data" = type { ptr, ptr, ptr }
%"struct.OpenSubdiv::v3_6_0::Vtr::internal::Refinement::SparseTag" = type { i8 }

; Function Attrs: mustprogress nounwind uwtable
define linkonce_odr noundef nonnull align 1 dereferenceable(1) ptr @_ZNSt6vectorIN10OpenSubdiv6v3_6_03Vtr8internal10Refinement9SparseTagESaIS5_EEixEm(ptr noundef nonnull align 8 dereferenceable(24) %0, i64 noundef %1) #2 comdat align 2 {
  %3 = alloca ptr, align 8
  %4 = alloca i64, align 8
  store ptr %0, ptr %3, align 8
  store i64 %1, ptr %4, align 8
  %5 = load ptr, ptr %3, align 8
  %6 = getelementptr inbounds nuw %"struct.std::_Vector_base.6", ptr %5, i32 0, i32 0
  %7 = getelementptr inbounds nuw %"struct.std::_Vector_base<OpenSubdiv::v3_6_0::Vtr::internal::Refinement::SparseTag, std::allocator<OpenSubdiv::v3_6_0::Vtr::internal::Refinement::SparseTag>>::_Vector_impl_data", ptr %6, i32 0, i32 0
  %8 = load ptr, ptr %7, align 8
  %9 = load i64, ptr %4, align 8
  %10 = getelementptr inbounds %"struct.OpenSubdiv::v3_6_0::Vtr::internal::Refinement::SparseTag", ptr %8, i64 %9
  ret ptr %10
}

; Function Attrs: mustprogress nounwind uwtable
define linkonce_odr noundef nonnull align 1 dereferenceable(1) ptr @_ZN10OpenSubdiv6v3_6_03Vtr8internal10Refinement24getParentVertexSparseTagEi(ptr noundef nonnull align 8 dereferenceable(504) %0, i32 noundef %1) #2 comdat align 2 {
  %3 = alloca ptr, align 8
  %4 = alloca i32, align 4
  store ptr %0, ptr %3, align 8
  store i32 %1, ptr %4, align 4
  %5 = load ptr, ptr %3, align 8
  %6 = getelementptr inbounds nuw %"class.OpenSubdiv::v3_6_0::Vtr::internal::Refinement", ptr %5, i32 0, i32 36
  %7 = load i32, ptr %4, align 4
  %8 = sext i32 %7 to i64
  %9 = call noundef nonnull align 1 dereferenceable(1) ptr @_ZNSt6vectorIN10OpenSubdiv6v3_6_03Vtr8internal10Refinement9SparseTagESaIS5_EEixEm(ptr noundef nonnull align 8 dereferenceable(24) %6, i64 noundef %8) #4
  ret ptr %9
}

; Function Attrs: mustprogress uwtable
define linkonce_odr void @_ZNK10OpenSubdiv6v3_6_03Vtr8internal14SparseSelector18markVertexSelectedEi(ptr noundef nonnull align 8 dereferenceable(9) %0, i32 noundef %1) #0 comdat align 2 {
  %3 = alloca ptr, align 8
  %4 = alloca i32, align 4
  store ptr %0, ptr %3, align 8
  store i32 %1, ptr %4, align 4
  %5 = load ptr, ptr %3, align 8
  %6 = getelementptr inbounds nuw %"class.OpenSubdiv::v3_6_0::Vtr::internal::SparseSelector", ptr %5, i32 0, i32 0
  %7 = load ptr, ptr %6, align 8
  %8 = load i32, ptr %4, align 4
  %9 = call noundef nonnull align 1 dereferenceable(1) ptr @_ZN10OpenSubdiv6v3_6_03Vtr8internal10Refinement24getParentVertexSparseTagEi(ptr noundef nonnull align 8 dereferenceable(504) %7, i32 noundef %8)
  %10 = load i8, ptr %9, align 1
  %11 = and i8 %10, -2
  %12 = or i8 %11, 1
  store i8 %12, ptr %9, align 1
  ret void
}

; Function Attrs: mustprogress uwtable
define linkonce_odr void @_ZN10OpenSubdiv6v3_6_03Vtr8internal14SparseSelector19initializeSelectionEv(ptr noundef nonnull align 8 dereferenceable(9) %0) #0 comdat align 2 {
  %2 = alloca ptr, align 8
  store ptr %0, ptr %2, align 8
  %3 = load ptr, ptr %2, align 8
  %4 = getelementptr inbounds nuw %"class.OpenSubdiv::v3_6_0::Vtr::internal::SparseSelector", ptr %3, i32 0, i32 1
  %5 = load i8, ptr %4, align 8
  %6 = trunc i8 %5 to i1
  br i1 %6, label %11, label %7

7:                                                ; preds = %1
  %8 = getelementptr inbounds nuw %"class.OpenSubdiv::v3_6_0::Vtr::internal::SparseSelector", ptr %3, i32 0, i32 0
  %9 = load ptr, ptr %8, align 8
  call void @_ZN10OpenSubdiv6v3_6_03Vtr8internal10Refinement29initializeSparseSelectionTagsEv(ptr noundef nonnull align 8 dereferenceable(504) %9)
  %10 = getelementptr inbounds nuw %"class.OpenSubdiv::v3_6_0::Vtr::internal::SparseSelector", ptr %3, i32 0, i32 1
  store i8 1, ptr %10, align 8
  br label %11

11:                                               ; preds = %7, %1
  ret void
}

; Function Attrs: mustprogress uwtable
define void @_ZN10OpenSubdiv6v3_6_03Vtr8internal14SparseSelector12selectVertexEi(ptr noundef nonnull align 8 dereferenceable(9) %0, i32 noundef %1) #0 align 2 {
  %3 = alloca ptr, align 8
  %4 = alloca i32, align 4
  store ptr %0, ptr %3, align 8
  store i32 %1, ptr %4, align 4
  %5 = load ptr, ptr %3, align 8
  call void @_ZN10OpenSubdiv6v3_6_03Vtr8internal14SparseSelector19initializeSelectionEv(ptr noundef nonnull align 8 dereferenceable(9) %5)
  %6 = load i32, ptr %4, align 4
  call void @_ZNK10OpenSubdiv6v3_6_03Vtr8internal14SparseSelector18markVertexSelectedEi(ptr noundef nonnull align 8 dereferenceable(9) %5, i32 noundef %6)
  ret void
}