; Function Attrs: mustprogress uwtable
define void @_ZN10OpenSubdiv6v3_6_03Vtr8internal14SparseSelector12selectVertexEi(ptr nocapture noundef nonnull align 8 dereferenceable(9) %0, i32 noundef %1) local_unnamed_addr #0 align 2 {
  %3 = getelementptr inbounds nuw i8, ptr %0, i64 8
  %4 = load i8, ptr %3, align 8
  %5 = trunc i8 %4 to i1
  br i1 %5, label %_ZN10OpenSubdiv6v3_6_03Vtr8internal14SparseSelector19initializeSelectionEv.exit, label %6

6:                                                ; preds = %2
  %7 = load ptr, ptr %0, align 8
  tail call void @_ZN10OpenSubdiv6v3_6_03Vtr8internal10Refinement29initializeSparseSelectionTagsEv(ptr noundef nonnull align 8 dereferenceable(504) %7)
  store i8 1, ptr %3, align 8
  br label %_ZN10OpenSubdiv6v3_6_03Vtr8internal14SparseSelector19initializeSelectionEv.exit

_ZN10OpenSubdiv6v3_6_03Vtr8internal14SparseSelector19initializeSelectionEv.exit: ; preds = %2, %6
  %8 = load ptr, ptr %0, align 8
  %9 = getelementptr inbounds nuw i8, ptr %8, i64 456
  %10 = sext i32 %1 to i64
  %11 = load ptr, ptr %9, align 8
  %12 = getelementptr inbounds %"struct.OpenSubdiv::v3_6_0::Vtr::internal::Refinement::SparseTag", ptr %11, i64 %10
  %13 = load i8, ptr %12, align 1
  %14 = or i8 %13, 1
  store i8 %14, ptr %12, align 1
  ret void
}